; Function Attrs: nounwind uwtable
define void @lv_iter_inspect(ptr noundef %0, ptr nocapture noundef readonly %1) local_unnamed_addr #0 {
  %.not = icmp eq ptr %0, null
  br i1 %.not, label %.preheader, label %3

.preheader:                                       ; preds = %2, %.preheader
  br label %.preheader

3:                                                ; preds = %2
  %4 = getelementptr inbounds nuw i8, ptr %0, i64 8
  %5 = load i32, ptr %4, align 8, !tbaa !9
  %6 = zext i32 %5 to i64
  %7 = tail call ptr @lv_malloc_zeroed(i64 noundef %6) #4
  %.not11 = icmp eq ptr %7, null
  br i1 %.not11, label %.preheader12, label %.preheader13

.preheader13:                                     ; preds = %3
  %8 = getelementptr inbounds nuw i8, ptr %0, i64 32
  %9 = getelementptr inbounds nuw i8, ptr %0, i64 48
  %10 = getelementptr inbounds nuw i8, ptr %0, i64 16
  %11 = getelementptr inbounds nuw i8, ptr %0, i64 40
  br label %12

.preheader12:                                     ; preds = %3, %.preheader12
  br label %.preheader12

12:                                               ; preds = %.preheader13, %25
  %13 = load ptr, ptr %8, align 8, !tbaa !13
  %.not22.i = icmp eq ptr %13, null
  br i1 %.not22.i, label %18, label %14

14:                                               ; preds = %12
  %15 = tail call zeroext i1 @lv_circle_buf_is_empty(ptr noundef nonnull %13) #4
  br i1 %15, label %18, label %16

16:                                               ; preds = %14
  %17 = tail call i32 @lv_circle_buf_read(ptr noundef nonnull %13, ptr noundef nonnull %7) #4
  br label %.sink.split.i

18:                                               ; preds = %14, %12
  %19 = load ptr, ptr %9, align 8, !tbaa !11
  %20 = load ptr, ptr %0, align 8, !tbaa !3
  %21 = load ptr, ptr %10, align 8, !tbaa !12
  %22 = tail call i32 %19(ptr noundef %20, ptr noundef %21, ptr noundef nonnull %7) #4
  %23 = icmp eq i32 %22, 0
  %brmerge.i = or i1 %.not22.i, %23
  br i1 %brmerge.i, label %lv_iter_next.exit, label %.sink.split.i

.sink.split.i:                                    ; preds = %18, %16
  %.1.ph.i = phi i32 [ 1, %16 ], [ %22, %18 ]
  store i32 0, ptr %11, align 8, !tbaa !14
  br label %lv_iter_next.exit

lv_iter_next.exit:                                ; preds = %18, %.sink.split.i
  %.1.i = phi i32 [ %22, %18 ], [ %.1.ph.i, %.sink.split.i ]
  %24 = icmp eq i32 %.1.i, 1
  br i1 %24, label %25, label %26

25:                                               ; preds = %lv_iter_next.exit
  tail call void %1(ptr noundef nonnull %7) #4
  br label %12, !llvm.loop !15

26:                                               ; preds = %lv_iter_next.exit
  tail call void @lv_free(ptr noundef nonnull %7) #4
  ret void
}